target datalayout = "e-m:e-p270:32:32-p271:32:32-p272:64:64-i64:64-i128:128-f80:128-n8:16:32:64-S128"
target triple = "x86_64-pc-linux-gnu"

%struct.T1_CMapStdRec_ = type { %struct.FT_CMapRec_, ptr, ptr, i32, ptr }
%struct.FT_CMapRec_ = type { %struct.FT_CharMapRec_, ptr }
%struct.FT_CharMapRec_ = type { ptr, i32, i16, i16 }

; Function Attrs: nounwind uwtable
define internal i32 @t1_cmap_std_char_index(ptr noundef %0, i32 noundef %1) #0 {
  %3 = alloca ptr, align 8
  %4 = alloca i32, align 4
  %5 = alloca ptr, align 8
  %6 = alloca i32, align 4
  %7 = alloca i32, align 4
  %8 = alloca i32, align 4
  %9 = alloca ptr, align 8
  %10 = alloca ptr, align 8
  store ptr %0, ptr %3, align 8
  store i32 %1, ptr %4, align 4
  %11 = load ptr, ptr %3, align 8
  store ptr %11, ptr %5, align 8
  store i32 0, ptr %6, align 4
  %12 = load i32, ptr %4, align 4
  %13 = icmp ult i32 %12, 256
  br i1 %13, label %14, label %66

14:                                               ; preds = %2
  %15 = load ptr, ptr %5, align 8
  %16 = getelementptr inbounds %struct.T1_CMapStdRec_, ptr %15, i32 0, i32 1
  %17 = load ptr, ptr %16, align 8
  %18 = load i32, ptr %4, align 4
  %19 = zext i32 %18 to i64
  %20 = getelementptr inbounds i16, ptr %17, i64 %19
  %21 = load i16, ptr %20, align 2
  %22 = zext i16 %21 to i32
  store i32 %22, ptr %7, align 4
  %23 = load ptr, ptr %5, align 8
  %24 = getelementptr inbounds %struct.T1_CMapStdRec_, ptr %23, i32 0, i32 2
  %25 = load ptr, ptr %24, align 8
  %26 = load i32, ptr %7, align 4
  %27 = call ptr %25(i32 noundef %26)
  store ptr %27, ptr %9, align 8
  store i32 0, ptr %8, align 4
  br label %28

28:                                               ; preds = %62, %14
  %29 = load i32, ptr %8, align 4
  %30 = load ptr, ptr %5, align 8
  %31 = getelementptr inbounds %struct.T1_CMapStdRec_, ptr %30, i32 0, i32 3
  %32 = load i32, ptr %31, align 8
  %33 = icmp ult i32 %29, %32
  br i1 %33, label %34, label %65

34:                                               ; preds = %28
  %35 = load ptr, ptr %5, align 8
  %36 = getelementptr inbounds %struct.T1_CMapStdRec_, ptr %35, i32 0, i32 4
  %37 = load ptr, ptr %36, align 8
  %38 = load i32, ptr %8, align 4
  %39 = zext i32 %38 to i64
  %40 = getelementptr inbounds ptr, ptr %37, i64 %39
  %41 = load ptr, ptr %40, align 8
  store ptr %41, ptr %10, align 8
  %42 = load ptr, ptr %10, align 8
  %43 = icmp ne ptr %42, null
  br i1 %43, label %44, label %61

44:                                               ; preds = %34
  %45 = load ptr, ptr %10, align 8
  %46 = getelementptr inbounds i8, ptr %45, i64 0
  %47 = load i8, ptr %46, align 1
  %48 = sext i8 %47 to i32
  %49 = load ptr, ptr %9, align 8
  %50 = getelementptr inbounds i8, ptr %49, i64 0
  %51 = load i8, ptr %50, align 1
  %52 = sext i8 %51 to i32
  %53 = icmp eq i32 %48, %52
  br i1 %53, label %54, label %61

54:                                               ; preds = %44
  %55 = load ptr, ptr %10, align 8
  %56 = load ptr, ptr %9, align 8
  %57 = call i32 @strcmp(ptr noundef %55, ptr noundef %56) #6
  %58 = icmp eq i32 %57, 0
  br i1 %58, label %59, label %61

59:                                               ; preds = %54
  %60 = load i32, ptr %8, align 4
  store i32 %60, ptr %6, align 4
  br label %65

61:                                               ; preds = %54, %44, %34
  br label %62

62:                                               ; preds = %61
  %63 = load i32, ptr %8, align 4
  %64 = add i32 %63, 1
  store i32 %64, ptr %8, align 4
  br label %28, !llvm.loop !15

65:                                               ; preds = %59, %28
  br label %66

66:                                               ; preds = %65, %2
  %67 = load i32, ptr %6, align 4
  ret i32 %67
}

; Function Attrs: nounwind uwtable
define internal i32 @t1_cmap_std_char_next(ptr noundef %0, ptr noundef %1) #0 {
  %3 = alloca ptr, align 8
  %4 = alloca ptr, align 8
  %5 = alloca i32, align 4
  %6 = alloca i32, align 4
  store ptr %0, ptr %3, align 8
  store ptr %1, ptr %4, align 8
  store i32 0, ptr %5, align 4
  %7 = load ptr, ptr %4, align 8
  %8 = load i32, ptr %7, align 4
  %9 = add i32 %8, 1
  store i32 %9, ptr %6, align 4
  br label %10

10:                                               ; preds = %20, %2
  %11 = load i32, ptr %6, align 4
  %12 = icmp ult i32 %11, 256
  br i1 %12, label %13, label %23

13:                                               ; preds = %10
  %14 = load ptr, ptr %3, align 8
  %15 = load i32, ptr %6, align 4
  %16 = call i32 @t1_cmap_std_char_index(ptr noundef %14, i32 noundef %15)
  store i32 %16, ptr %5, align 4
  %17 = load i32, ptr %5, align 4
  %18 = icmp ne i32 %17, 0
  br i1 %18, label %19, label %20

19:                                               ; preds = %13
  br label %24

20:                                               ; preds = %13
  %21 = load i32, ptr %6, align 4
  %22 = add i32 %21, 1
  store i32 %22, ptr %6, align 4
  br label %10, !llvm.loop !16

23:                                               ; preds = %10
  store i32 0, ptr %6, align 4
  br label %24

24:                                               ; preds = %23, %19
  %25 = load i32, ptr %6, align 4
  %26 = load ptr, ptr %4, align 8
  store i32 %25, ptr %26, align 4
  %27 = load i32, ptr %5, align 4
  ret i32 %27
}