; Function Attrs: nounwind uwtable
define internal i32 @t1_cmap_std_char_next(ptr noundef readonly captures(none) %0, ptr noundef captures(none) %1) #0 {
  %3 = load i32, ptr %1, align 4
  %4 = getelementptr inbounds nuw i8, ptr %0, i64 24
  %5 = getelementptr inbounds nuw i8, ptr %0, i64 32
  %6 = getelementptr inbounds nuw i8, ptr %0, i64 40
  %7 = getelementptr inbounds nuw i8, ptr %0, i64 48
  br label %8

8:                                                ; preds = %t1_cmap_std_char_index.exit, %2
  %.0.in = phi i32 [ %3, %2 ], [ %.0, %t1_cmap_std_char_index.exit ]
  %.0 = add i32 %.0.in, 1
  %9 = icmp ult i32 %.0, 256
  br i1 %9, label %10, label %32

10:                                               ; preds = %8
  %11 = load ptr, ptr %4, align 8
  %12 = zext nneg i32 %.0 to i64
  %13 = getelementptr inbounds nuw i16, ptr %11, i64 %12
  %14 = load i16, ptr %13, align 2
  %15 = zext i16 %14 to i32
  %16 = load ptr, ptr %5, align 8
  %17 = tail call ptr %16(i32 noundef %15) #20
  %18 = load i32, ptr %6, align 8
  %.not23.i = icmp eq i32 %18, 0
  br i1 %.not23.i, label %t1_cmap_std_char_index.exit, label %.lr.ph.i

.lr.ph.i:                                         ; preds = %10
  %19 = load ptr, ptr %7, align 8
  %wide.trip.count.i = zext i32 %18 to i64
  br label %20

20:                                               ; preds = %30, %.lr.ph.i
  %indvars.iv.i = phi i64 [ 0, %.lr.ph.i ], [ %indvars.iv.next.i, %30 ]
  %21 = getelementptr inbounds nuw ptr, ptr %19, i64 %indvars.iv.i
  %22 = load ptr, ptr %21, align 8
  %.not.i = icmp eq ptr %22, null
  br i1 %.not.i, label %30, label %23

23:                                               ; preds = %20
  %24 = load i8, ptr %22, align 1
  %25 = load i8, ptr %17, align 1
  %26 = icmp eq i8 %24, %25
  br i1 %26, label %27, label %30

27:                                               ; preds = %23
  %28 = tail call i32 @strcmp(ptr noundef nonnull dereferenceable(1) %22, ptr noundef nonnull dereferenceable(1) %17) #21
  %29 = icmp eq i32 %28, 0
  br i1 %29, label %.loopexit.loopexit.split.loop.exit.i, label %30

30:                                               ; preds = %27, %23, %20
  %indvars.iv.next.i = add nuw nsw i64 %indvars.iv.i, 1
  %exitcond.not.i = icmp eq i64 %indvars.iv.next.i, %wide.trip.count.i
  br i1 %exitcond.not.i, label %t1_cmap_std_char_index.exit, label %20, !llvm.loop !27

.loopexit.loopexit.split.loop.exit.i:             ; preds = %27
  %31 = trunc nuw i64 %indvars.iv.i to i32
  br label %t1_cmap_std_char_index.exit

t1_cmap_std_char_index.exit:                      ; preds = %30, %10, %.loopexit.loopexit.split.loop.exit.i
  %.0.i = phi i32 [ 0, %10 ], [ %31, %.loopexit.loopexit.split.loop.exit.i ], [ 0, %30 ]
  %.not = icmp eq i32 %.0.i, 0
  br i1 %.not, label %8, label %32, !llvm.loop !28

32:                                               ; preds = %8, %t1_cmap_std_char_index.exit
  %.19 = phi i32 [ %.0.i, %t1_cmap_std_char_index.exit ], [ 0, %8 ]
  %.1 = phi i32 [ %.0, %t1_cmap_std_char_index.exit ], [ 0, %8 ]
  store i32 %.1, ptr %1, align 4
  ret i32 %.19
}